target datalayout = "e-m:e-p270:32:32-p271:32:32-p272:64:64-i64:64-i128:128-f80:128-n8:16:32:64-S128"
target triple = "x86_64-pc-linux-gnu"

%"class.Assimp::IFCImporter" = type <{ %"class.Assimp::BaseImporter", %"struct.Assimp::IFCImporter::Settings", [4 x i8] }>
%"class.Assimp::BaseImporter" = type { ptr, double, double, %"class.std::__cxx11::basic_string", %"class.std::__exception_ptr::exception_ptr", ptr }
%"class.std::__cxx11::basic_string" = type { %"struct.std::__cxx11::basic_string<char>::_Alloc_hider", i64, %union.anon }
%"struct.std::__cxx11::basic_string<char>::_Alloc_hider" = type { ptr }
%union.anon = type { i64, [8 x i8] }
%"class.std::__exception_ptr::exception_ptr" = type { ptr }
%"struct.Assimp::IFCImporter::Settings" = type { i8, i8, i8, float, i32 }

@.str.2 = private unnamed_addr constant [38 x i8] c"IMPORT_IFC_SKIP_SPACE_REPRESENTATIONS\00", align 1
@.str.3 = private unnamed_addr constant [32 x i8] c"IMPORT_IFC_CUSTOM_TRIANGULATION\00", align 1
@.str.4 = private unnamed_addr constant [27 x i8] c"IMPORT_IFC_SMOOTHING_ANGLE\00", align 1
@.str.5 = private unnamed_addr constant [36 x i8] c"IMPORT_IFC_CYLINDRICAL_TESSELLATION\00", align 1

; Function Attrs: inlinehint mustprogress nounwind uwtable
define linkonce_odr noundef nonnull align 4 dereferenceable(4) ptr @_ZSt3minIiERKT_S2_S2_(ptr noundef nonnull align 4 dereferenceable(4) %0, ptr noundef nonnull align 4 dereferenceable(4) %1) #4 comdat {
  %3 = alloca ptr, align 8
  %4 = alloca ptr, align 8
  %5 = alloca ptr, align 8
  store ptr %0, ptr %4, align 8
  store ptr %1, ptr %5, align 8
  %6 = load ptr, ptr %5, align 8
  %7 = load i32, ptr %6, align 4
  %8 = load ptr, ptr %4, align 8
  %9 = load i32, ptr %8, align 4
  %10 = icmp slt i32 %7, %9
  br i1 %10, label %11, label %13

11:                                               ; preds = %2
  %12 = load ptr, ptr %5, align 8
  store ptr %12, ptr %3, align 8
  br label %15

13:                                               ; preds = %2
  %14 = load ptr, ptr %4, align 8
  store ptr %14, ptr %3, align 8
  br label %15

15:                                               ; preds = %13, %11
  %16 = load ptr, ptr %3, align 8
  ret ptr %16
}

; Function Attrs: inlinehint mustprogress nounwind uwtable
define linkonce_odr noundef nonnull align 4 dereferenceable(4) ptr @_ZSt3maxIiERKT_S2_S2_(ptr noundef nonnull align 4 dereferenceable(4) %0, ptr noundef nonnull align 4 dereferenceable(4) %1) #4 comdat {
  %3 = alloca ptr, align 8
  %4 = alloca ptr, align 8
  %5 = alloca ptr, align 8
  store ptr %0, ptr %4, align 8
  store ptr %1, ptr %5, align 8
  %6 = load ptr, ptr %4, align 8
  %7 = load i32, ptr %6, align 4
  %8 = load ptr, ptr %5, align 8
  %9 = load i32, ptr %8, align 4
  %10 = icmp slt i32 %7, %9
  br i1 %10, label %11, label %13

11:                                               ; preds = %2
  %12 = load ptr, ptr %5, align 8
  store ptr %12, ptr %3, align 8
  br label %15

13:                                               ; preds = %2
  %14 = load ptr, ptr %4, align 8
  store ptr %14, ptr %3, align 8
  br label %15

15:                                               ; preds = %13, %11
  %16 = load ptr, ptr %3, align 8
  ret ptr %16
}

; Function Attrs: inlinehint mustprogress nounwind uwtable
define linkonce_odr noundef nonnull align 4 dereferenceable(4) ptr @_ZSt3minIfERKT_S2_S2_(ptr noundef nonnull align 4 dereferenceable(4) %0, ptr noundef nonnull align 4 dereferenceable(4) %1) #4 comdat {
  %3 = alloca ptr, align 8
  %4 = alloca ptr, align 8
  %5 = alloca ptr, align 8
  store ptr %0, ptr %4, align 8
  store ptr %1, ptr %5, align 8
  %6 = load ptr, ptr %5, align 8
  %7 = load float, ptr %6, align 4
  %8 = load ptr, ptr %4, align 8
  %9 = load float, ptr %8, align 4
  %10 = fcmp olt float %7, %9
  br i1 %10, label %11, label %13

11:                                               ; preds = %2
  %12 = load ptr, ptr %5, align 8
  store ptr %12, ptr %3, align 8
  br label %15

13:                                               ; preds = %2
  %14 = load ptr, ptr %4, align 8
  store ptr %14, ptr %3, align 8
  br label %15

15:                                               ; preds = %13, %11
  %16 = load ptr, ptr %3, align 8
  ret ptr %16
}

; Function Attrs: inlinehint mustprogress nounwind uwtable
define linkonce_odr noundef nonnull align 4 dereferenceable(4) ptr @_ZSt3maxIfERKT_S2_S2_(ptr noundef nonnull align 4 dereferenceable(4) %0, ptr noundef nonnull align 4 dereferenceable(4) %1) #4 comdat {
  %3 = alloca ptr, align 8
  %4 = alloca ptr, align 8
  %5 = alloca ptr, align 8
  store ptr %0, ptr %4, align 8
  store ptr %1, ptr %5, align 8
  %6 = load ptr, ptr %4, align 8
  %7 = load float, ptr %6, align 4
  %8 = load ptr, ptr %5, align 8
  %9 = load float, ptr %8, align 4
  %10 = fcmp olt float %7, %9
  br i1 %10, label %11, label %13

11:                                               ; preds = %2
  %12 = load ptr, ptr %5, align 8
  store ptr %12, ptr %3, align 8
  br label %15

13:                                               ; preds = %2
  %14 = load ptr, ptr %4, align 8
  store ptr %14, ptr %3, align 8
  br label %15

15:                                               ; preds = %13, %11
  %16 = load ptr, ptr %3, align 8
  ret ptr %16
}

; Function Attrs: mustprogress uwtable
define linkonce_odr noundef zeroext i1 @_ZNK6Assimp8Importer15GetPropertyBoolEPKcb(ptr noundef nonnull align 8 dereferenceable(8) %0, ptr noundef %1, i1 noundef zeroext %2) #2 comdat align 2 {
  %4 = alloca ptr, align 8
  %5 = alloca ptr, align 8
  %6 = alloca i8, align 1
  store ptr %0, ptr %4, align 8
  store ptr %1, ptr %5, align 8
  %7 = zext i1 %2 to i8
  store i8 %7, ptr %6, align 1
  %8 = load ptr, ptr %4, align 8
  %9 = load ptr, ptr %5, align 8
  %10 = load i8, ptr %6, align 1, !range !3, !noundef !4
  %11 = trunc i8 %10 to i1
  %12 = zext i1 %11 to i32
  %13 = call noundef i32 @_ZNK6Assimp8Importer18GetPropertyIntegerEPKci(ptr noundef nonnull align 8 dereferenceable(8) %8, ptr noundef %9, i32 noundef %12)
  %14 = icmp ne i32 %13, 0
  ret i1 %14
}

; Function Attrs: mustprogress uwtable
define hidden void @_ZN6Assimp11IFCImporter15SetupPropertiesEPKNS_8ImporterE(ptr noundef nonnull align 8 dereferenceable(84) %0, ptr noundef %1) unnamed_addr #2 align 2 {
  %3 = alloca ptr, align 8
  %4 = alloca ptr, align 8
  %5 = alloca float, align 4
  %6 = alloca float, align 4
  %7 = alloca float, align 4
  %8 = alloca i32, align 4
  %9 = alloca i32, align 4
  %10 = alloca i32, align 4
  store ptr %0, ptr %3, align 8
  store ptr %1, ptr %4, align 8
  %11 = load ptr, ptr %3, align 8
  %12 = load ptr, ptr %4, align 8
  %13 = call noundef zeroext i1 @_ZNK6Assimp8Importer15GetPropertyBoolEPKcb(ptr noundef nonnull align 8 dereferenceable(8) %12, ptr noundef @.str.2, i1 noundef zeroext true)
  %14 = getelementptr inbounds nuw %"class.Assimp::IFCImporter", ptr %11, i32 0, i32 1
  %15 = getelementptr inbounds nuw %"struct.Assimp::IFCImporter::Settings", ptr %14, i32 0, i32 0
  %16 = zext i1 %13 to i8
  store i8 %16, ptr %15, align 8
  %17 = load ptr, ptr %4, align 8
  %18 = call noundef zeroext i1 @_ZNK6Assimp8Importer15GetPropertyBoolEPKcb(ptr noundef nonnull align 8 dereferenceable(8) %17, ptr noundef @.str.3, i1 noundef zeroext true)
  %19 = getelementptr inbounds nuw %"class.Assimp::IFCImporter", ptr %11, i32 0, i32 1
  %20 = getelementptr inbounds nuw %"struct.Assimp::IFCImporter::Settings", ptr %19, i32 0, i32 1
  %21 = zext i1 %18 to i8
  store i8 %21, ptr %20, align 1
  call void @llvm.lifetime.start.p0(i64 4, ptr %5) #24
  %22 = load ptr, ptr %4, align 8
  %23 = call noundef float @_ZNK6Assimp8Importer16GetPropertyFloatEPKcf(ptr noundef nonnull align 8 dereferenceable(8) %22, ptr noundef @.str.4, float noundef 1.000000e+01)
  store float %23, ptr %5, align 4
  call void @llvm.lifetime.start.p0(i64 4, ptr %6) #24
  store float 5.000000e+00, ptr %6, align 4
  %24 = call noundef nonnull align 4 dereferenceable(4) ptr @_ZSt3maxIfERKT_S2_S2_(ptr noundef nonnull align 4 dereferenceable(4) %5, ptr noundef nonnull align 4 dereferenceable(4) %6)
  call void @llvm.lifetime.start.p0(i64 4, ptr %7) #24
  store float 1.200000e+02, ptr %7, align 4
  %25 = call noundef nonnull align 4 dereferenceable(4) ptr @_ZSt3minIfERKT_S2_S2_(ptr noundef nonnull align 4 dereferenceable(4) %24, ptr noundef nonnull align 4 dereferenceable(4) %7)
  %26 = load float, ptr %25, align 4
  %27 = getelementptr inbounds nuw %"class.Assimp::IFCImporter", ptr %11, i32 0, i32 1
  %28 = getelementptr inbounds nuw %"struct.Assimp::IFCImporter::Settings", ptr %27, i32 0, i32 3
  store float %26, ptr %28, align 4
  call void @llvm.lifetime.end.p0(i64 4, ptr %7) #24
  call void @llvm.lifetime.end.p0(i64 4, ptr %6) #24
  call void @llvm.lifetime.end.p0(i64 4, ptr %5) #24
  call void @llvm.lifetime.start.p0(i64 4, ptr %8) #24
  %29 = load ptr, ptr %4, align 8
  %30 = call noundef i32 @_ZNK6Assimp8Importer18GetPropertyIntegerEPKci(ptr noundef nonnull align 8 dereferenceable(8) %29, ptr noundef @.str.5, i32 noundef 32)
  store i32 %30, ptr %8, align 4
  call void @llvm.lifetime.start.p0(i64 4, ptr %9) #24
  store i32 3, ptr %9, align 4
  %31 = call noundef nonnull align 4 dereferenceable(4) ptr @_ZSt3maxIiERKT_S2_S2_(ptr noundef nonnull align 4 dereferenceable(4) %8, ptr noundef nonnull align 4 dereferenceable(4) %9)
  call void @llvm.lifetime.start.p0(i64 4, ptr %10) #24
  store i32 180, ptr %10, align 4
  %32 = call noundef nonnull align 4 dereferenceable(4) ptr @_ZSt3minIiERKT_S2_S2_(ptr noundef nonnull align 4 dereferenceable(4) %31, ptr noundef nonnull align 4 dereferenceable(4) %10)
  %33 = load i32, ptr %32, align 4
  %34 = getelementptr inbounds nuw %"class.Assimp::IFCImporter", ptr %11, i32 0, i32 1
  %35 = getelementptr inbounds nuw %"struct.Assimp::IFCImporter::Settings", ptr %34, i32 0, i32 4
  store i32 %33, ptr %35, align 8
  call void @llvm.lifetime.end.p0(i64 4, ptr %10) #24
  call void @llvm.lifetime.end.p0(i64 4, ptr %9) #24
  call void @llvm.lifetime.end.p0(i64 4, ptr %8) #24
  %36 = getelementptr inbounds nuw %"class.Assimp::IFCImporter", ptr %11, i32 0, i32 1
  %37 = getelementptr inbounds nuw %"struct.Assimp::IFCImporter::Settings", ptr %36, i32 0, i32 2
  store i8 1, ptr %37, align 2
  ret void
}