; Function Attrs: mustprogress uwtable
define hidden void @_ZN6Assimp11IFCImporter15SetupPropertiesEPKNS_8ImporterE(ptr noundef nonnull writeonly align 8 captures(none) dereferenceable(84) initializes((72, 75), (76, 84)) %0, ptr noundef nonnull %1) unnamed_addr #1 align 2 {
  %3 = tail call noundef i32 @_ZNK6Assimp8Importer18GetPropertyIntegerEPKci(ptr noundef nonnull align 8 dereferenceable(8) %1, ptr noundef nonnull @.str.2, i32 noundef 1)
  %4 = icmp ne i32 %3, 0
  %5 = getelementptr inbounds nuw i8, ptr %0, i64 72
  %6 = zext i1 %4 to i8
  store i8 %6, ptr %5, align 8
  %7 = tail call noundef i32 @_ZNK6Assimp8Importer18GetPropertyIntegerEPKci(ptr noundef nonnull align 8 dereferenceable(8) %1, ptr noundef nonnull @.str.3, i32 noundef 1)
  %8 = icmp ne i32 %7, 0
  %9 = getelementptr inbounds nuw i8, ptr %0, i64 73
  %10 = zext i1 %8 to i8
  store i8 %10, ptr %9, align 1
  %11 = tail call noundef float @_ZNK6Assimp8Importer16GetPropertyFloatEPKcf(ptr noundef nonnull align 8 dereferenceable(8) %1, ptr noundef nonnull @.str.4, float noundef 1.000000e+01)
  %12 = fcmp olt float %11, 5.000000e+00
  %.sroa.speculated18 = select i1 %12, float 5.000000e+00, float %11
  %13 = fcmp ogt float %.sroa.speculated18, 1.200000e+02
  %.sroa.speculated16 = select i1 %13, float 1.200000e+02, float %.sroa.speculated18
  %14 = getelementptr inbounds nuw i8, ptr %0, i64 76
  store float %.sroa.speculated16, ptr %14, align 4
  %15 = tail call noundef i32 @_ZNK6Assimp8Importer18GetPropertyIntegerEPKci(ptr noundef nonnull align 8 dereferenceable(8) %1, ptr noundef nonnull @.str.5, i32 noundef 32)
  %.sroa.speculated9 = tail call i32 @llvm.smax.i32(i32 %15, i32 3)
  %.sroa.speculated = tail call i32 @llvm.umin.i32(i32 %.sroa.speculated9, i32 180)
  %16 = getelementptr inbounds nuw i8, ptr %0, i64 80
  store i32 %.sroa.speculated, ptr %16, align 8
  %17 = getelementptr inbounds nuw i8, ptr %0, i64 74
  store i8 1, ptr %17, align 2
  ret void
}